; Function Attrs: nounwind uwtable
define hidden ptr @uv__strdup(ptr noundef readonly captures(none) %0) local_unnamed_addr #0 {
  %2 = tail call i64 @strlen(ptr noundef nonnull dereferenceable(1) %0) #25
  %3 = add i64 %2, 1
  %.not.i = icmp eq i64 %3, 0
  br i1 %.not.i, label %uv__malloc.exit.thread, label %uv__malloc.exit

uv__malloc.exit:                                  ; preds = %1
  %4 = load ptr, ptr @uv__allocator.0, align 8
  %5 = tail call ptr %4(i64 noundef %3) #26
  %6 = icmp eq ptr %5, null
  br i1 %6, label %uv__malloc.exit.thread, label %7

7:                                                ; preds = %uv__malloc.exit
  tail call void @llvm.memcpy.p0.p0.i64(ptr nonnull align 1 %5, ptr nonnull align 1 %0, i64 %3, i1 false)
  br label %uv__malloc.exit.thread

uv__malloc.exit.thread:                           ; preds = %1, %uv__malloc.exit, %7
  %.0 = phi ptr [ %5, %7 ], [ null, %uv__malloc.exit ], [ null, %1 ]
  ret ptr %.0
}